; Function Attrs: mustprogress uwtable
define hidden void @_ZN6Assimp11XFileParser20readHeadOfDataObjectEPNSt7__cxx1112basic_stringIcSt11char_traitsIcESaIcEEE(ptr noundef nonnull align 8 dereferenceable(56) %this, ptr noundef %poName) local_unnamed_addr #0 align 2 personality ptr @__gxx_personality_v0 {
entry:
  %nameOrBrace = alloca %"class.std::__cxx11::basic_string", align 8
  %ref.tmp = alloca %"class.std::__cxx11::basic_string", align 8
  call void @_ZN6Assimp11XFileParser12GetNextTokenB5cxx11Ev(ptr nonnull sret(%"class.std::__cxx11::basic_string") align 8 %nameOrBrace, ptr noundef nonnull align 8 dereferenceable(56) %this)
  %call.i.i = call noundef i32 @_ZNKSt7__cxx1112basic_stringIcSt11char_traitsIcESaIcEE7compareEPKc(ptr noundef nonnull align 8 dereferenceable(32) %nameOrBrace, ptr noundef nonnull @.str.45) #21
  %cmp.i.i.not = icmp eq i32 %call.i.i, 0
  br i1 %cmp.i.i.not, label %if.end12, label %if.then

if.then:                                          ; preds = %entry
  %tobool.not = icmp eq ptr %poName, null
  br i1 %tobool.not, label %if.end, label %if.then2

if.then2:                                         ; preds = %if.then
  %call4 = invoke noundef nonnull align 8 dereferenceable(32) ptr @_ZNSt7__cxx1112basic_stringIcSt11char_traitsIcESaIcEEaSERKS4_(ptr noundef nonnull align 8 dereferenceable(32) %poName, ptr noundef nonnull align 8 dereferenceable(32) %nameOrBrace)
          to label %if.end unwind label %lpad

lpad:                                             ; preds = %delete.end, %if.end, %if.then2
  %0 = landingpad { ptr, i32 }
          cleanup
  call void @_ZNSt7__cxx1112basic_stringIcSt11char_traitsIcESaIcEED1Ev(ptr noundef nonnull align 8 dereferenceable(32) %nameOrBrace) #21
  resume { ptr, i32 } %0

if.end:                                           ; preds = %if.then2, %if.then
  invoke void @_ZN6Assimp11XFileParser12GetNextTokenB5cxx11Ev(ptr nonnull sret(%"class.std::__cxx11::basic_string") align 8 %ref.tmp, ptr noundef nonnull align 8 dereferenceable(56) %this)
          to label %invoke.cont5 unwind label %lpad

invoke.cont5:                                     ; preds = %if.end
  %call.i.i2 = call noundef i32 @_ZNKSt7__cxx1112basic_stringIcSt11char_traitsIcESaIcEE7compareEPKc(ptr noundef nonnull align 8 dereferenceable(32) %ref.tmp, ptr noundef nonnull @.str.45) #21
  %cmp.i.i3.not = icmp eq i32 %call.i.i2, 0
  call void @_ZNSt7__cxx1112basic_stringIcSt11char_traitsIcESaIcEED1Ev(ptr noundef nonnull align 8 dereferenceable(32) %ref.tmp) #21
  br i1 %cmp.i.i3.not, label %if.end12, label %if.then9

if.then9:                                         ; preds = %invoke.cont5
  %mScene = getelementptr inbounds i8, ptr %this, i64 48
  %1 = load ptr, ptr %mScene, align 8
  %isnull = icmp eq ptr %1, null
  br i1 %isnull, label %delete.end, label %delete.notnull

delete.notnull:                                   ; preds = %if.then9
  call void @_ZN6Assimp5XFile5SceneD2Ev(ptr noundef nonnull align 8 dereferenceable(84) %1) #21
  call void @_ZdlPv(ptr noundef nonnull %1) #25
  br label %delete.end

delete.end:                                       ; preds = %delete.notnull, %if.then9
  invoke void @_ZN6Assimp11XFileParser14ThrowExceptionIJRA24_KcEEEvDpOT_(ptr noundef nonnull align 8 dereferenceable(56) %this, ptr noundef nonnull align 1 dereferenceable(24) @.str.75) #23
          to label %invoke.cont10 unwind label %lpad

invoke.cont10:                                    ; preds = %delete.end
  unreachable

if.end12:                                         ; preds = %invoke.cont5, %entry
  call void @_ZNSt7__cxx1112basic_stringIcSt11char_traitsIcESaIcEED1Ev(ptr noundef nonnull align 8 dereferenceable(32) %nameOrBrace) #21
  ret void
}